(dp0
S'num_cases_per_batch'
p1
I11000
sS'label_names'
p2
(lp3
S'airplane'
p4
aS'automobile'
p5
aS'bird'
p6
aS'cat'
p7
aS'deer'
p8
aS'dog'
p9
aS'frog'
p10
aS'horse'
p11
aS'ship'
p12
aS'truck'
p13
aS'ship_truck'
p14
asS'num_vis'
p15
I3072
s.